target datalayout = "e-m:e-p270:32:32-p271:32:32-p272:64:64-i64:64-i128:128-f80:128-n8:16:32:64-S128"
target triple = "x86_64-pc-linux-gnu"

%struct._generic_ARKInterp = type { ptr, ptr }
%struct._ARKInterpContent_Hermite = type { i32, ptr, ptr, ptr, ptr, double, double, double }
%struct.ARKodeMemRec = type { ptr, double, ptr, i32, i32, double, double, ptr, i32, double, ptr, i32, i32, ptr, ptr, i32, ptr, ptr, i32, ptr, ptr, ptr, ptr, ptr, ptr, ptr, ptr, ptr, ptr, ptr, ptr, ptr, ptr, ptr, i32, ptr, ptr, i32, ptr, i32, ptr, ptr, ptr, ptr, ptr, ptr, ptr, ptr, ptr, ptr, ptr, ptr, ptr, ptr, ptr, ptr, ptr, ptr, ptr, ptr, ptr, ptr, ptr, ptr, ptr, ptr, i32, ptr, ptr, ptr, ptr, ptr, ptr, ptr, i32, ptr, ptr, ptr, i32, ptr, ptr, ptr, ptr, ptr, ptr, ptr, i32, i32, i32, i32, double, double, double, double, double, double, double, double, double, double, i32, ptr, i64, i32, i32, i32, i32, i64, i64, i32, i64, i64, i64, i64, i64, i64, i64, double, double, double, double, double, i32, double, double, i32, i32, i32, i32, i32, i32, i32, i32, ptr, i32, ptr, ptr, ptr, ptr, i32, i32, i32 }

; Function Attrs: nounwind uwtable
define void @arkInterpFree_Hermite(ptr noundef %0, ptr noundef %1) #0 {
  %3 = alloca ptr, align 8
  %4 = alloca ptr, align 8
  store ptr %0, ptr %3, align 8, !tbaa !3
  store ptr %1, ptr %4, align 8, !tbaa !8
  %5 = load ptr, ptr %4, align 8, !tbaa !8
  %6 = icmp eq ptr %5, null
  br i1 %6, label %7, label %8

7:                                                ; preds = %2
  br label %108

8:                                                ; preds = %2
  %9 = load ptr, ptr %4, align 8, !tbaa !8
  %10 = getelementptr inbounds nuw %struct._generic_ARKInterp, ptr %9, i32 0, i32 0
  %11 = load ptr, ptr %10, align 8, !tbaa !35
  %12 = icmp ne ptr %11, null
  br i1 %12, label %13, label %95

13:                                               ; preds = %8
  %14 = load ptr, ptr %4, align 8, !tbaa !8
  %15 = getelementptr inbounds nuw %struct._generic_ARKInterp, ptr %14, i32 0, i32 0
  %16 = load ptr, ptr %15, align 8, !tbaa !35
  %17 = getelementptr inbounds nuw %struct._ARKInterpContent_Hermite, ptr %16, i32 0, i32 1
  %18 = load ptr, ptr %17, align 8, !tbaa !36
  %19 = icmp ne ptr %18, null
  br i1 %19, label %20, label %30

20:                                               ; preds = %13
  %21 = load ptr, ptr %3, align 8, !tbaa !3
  %22 = load ptr, ptr %4, align 8, !tbaa !8
  %23 = getelementptr inbounds nuw %struct._generic_ARKInterp, ptr %22, i32 0, i32 0
  %24 = load ptr, ptr %23, align 8, !tbaa !35
  %25 = getelementptr inbounds nuw %struct._ARKInterpContent_Hermite, ptr %24, i32 0, i32 1
  call void @arkFreeVec(ptr noundef %21, ptr noundef %25)
  %26 = load ptr, ptr %4, align 8, !tbaa !8
  %27 = getelementptr inbounds nuw %struct._generic_ARKInterp, ptr %26, i32 0, i32 0
  %28 = load ptr, ptr %27, align 8, !tbaa !35
  %29 = getelementptr inbounds nuw %struct._ARKInterpContent_Hermite, ptr %28, i32 0, i32 1
  store ptr null, ptr %29, align 8, !tbaa !36
  br label %30

30:                                               ; preds = %20, %13
  %31 = load ptr, ptr %4, align 8, !tbaa !8
  %32 = getelementptr inbounds nuw %struct._generic_ARKInterp, ptr %31, i32 0, i32 0
  %33 = load ptr, ptr %32, align 8, !tbaa !35
  %34 = getelementptr inbounds nuw %struct._ARKInterpContent_Hermite, ptr %33, i32 0, i32 2
  %35 = load ptr, ptr %34, align 8, !tbaa !38
  %36 = icmp ne ptr %35, null
  br i1 %36, label %37, label %47

37:                                               ; preds = %30
  %38 = load ptr, ptr %3, align 8, !tbaa !3
  %39 = load ptr, ptr %4, align 8, !tbaa !8
  %40 = getelementptr inbounds nuw %struct._generic_ARKInterp, ptr %39, i32 0, i32 0
  %41 = load ptr, ptr %40, align 8, !tbaa !35
  %42 = getelementptr inbounds nuw %struct._ARKInterpContent_Hermite, ptr %41, i32 0, i32 2
  call void @arkFreeVec(ptr noundef %38, ptr noundef %42)
  %43 = load ptr, ptr %4, align 8, !tbaa !8
  %44 = getelementptr inbounds nuw %struct._generic_ARKInterp, ptr %43, i32 0, i32 0
  %45 = load ptr, ptr %44, align 8, !tbaa !35
  %46 = getelementptr inbounds nuw %struct._ARKInterpContent_Hermite, ptr %45, i32 0, i32 2
  store ptr null, ptr %46, align 8, !tbaa !38
  br label %47

47:                                               ; preds = %37, %30
  %48 = load ptr, ptr %4, align 8, !tbaa !8
  %49 = getelementptr inbounds nuw %struct._generic_ARKInterp, ptr %48, i32 0, i32 0
  %50 = load ptr, ptr %49, align 8, !tbaa !35
  %51 = getelementptr inbounds nuw %struct._ARKInterpContent_Hermite, ptr %50, i32 0, i32 3
  %52 = load ptr, ptr %51, align 8, !tbaa !39
  %53 = icmp ne ptr %52, null
  br i1 %53, label %54, label %64

54:                                               ; preds = %47
  %55 = load ptr, ptr %3, align 8, !tbaa !3
  %56 = load ptr, ptr %4, align 8, !tbaa !8
  %57 = getelementptr inbounds nuw %struct._generic_ARKInterp, ptr %56, i32 0, i32 0
  %58 = load ptr, ptr %57, align 8, !tbaa !35
  %59 = getelementptr inbounds nuw %struct._ARKInterpContent_Hermite, ptr %58, i32 0, i32 3
  call void @arkFreeVec(ptr noundef %55, ptr noundef %59)
  %60 = load ptr, ptr %4, align 8, !tbaa !8
  %61 = getelementptr inbounds nuw %struct._generic_ARKInterp, ptr %60, i32 0, i32 0
  %62 = load ptr, ptr %61, align 8, !tbaa !35
  %63 = getelementptr inbounds nuw %struct._ARKInterpContent_Hermite, ptr %62, i32 0, i32 3
  store ptr null, ptr %63, align 8, !tbaa !39
  br label %64

64:                                               ; preds = %54, %47
  %65 = load ptr, ptr %4, align 8, !tbaa !8
  %66 = getelementptr inbounds nuw %struct._generic_ARKInterp, ptr %65, i32 0, i32 0
  %67 = load ptr, ptr %66, align 8, !tbaa !35
  %68 = getelementptr inbounds nuw %struct._ARKInterpContent_Hermite, ptr %67, i32 0, i32 4
  %69 = load ptr, ptr %68, align 8, !tbaa !40
  %70 = icmp ne ptr %69, null
  br i1 %70, label %71, label %81

71:                                               ; preds = %64
  %72 = load ptr, ptr %3, align 8, !tbaa !3
  %73 = load ptr, ptr %4, align 8, !tbaa !8
  %74 = getelementptr inbounds nuw %struct._generic_ARKInterp, ptr %73, i32 0, i32 0
  %75 = load ptr, ptr %74, align 8, !tbaa !35
  %76 = getelementptr inbounds nuw %struct._ARKInterpContent_Hermite, ptr %75, i32 0, i32 4
  call void @arkFreeVec(ptr noundef %72, ptr noundef %76)
  %77 = load ptr, ptr %4, align 8, !tbaa !8
  %78 = getelementptr inbounds nuw %struct._generic_ARKInterp, ptr %77, i32 0, i32 0
  %79 = load ptr, ptr %78, align 8, !tbaa !35
  %80 = getelementptr inbounds nuw %struct._ARKInterpContent_Hermite, ptr %79, i32 0, i32 4
  store ptr null, ptr %80, align 8, !tbaa !40
  br label %81

81:                                               ; preds = %71, %64
  %82 = load ptr, ptr %3, align 8, !tbaa !3
  %83 = getelementptr inbounds nuw %struct.ARKodeMemRec, ptr %82, i32 0, i32 115
  %84 = load i64, ptr %83, align 8, !tbaa !42
  %85 = sub nsw i64 %84, 2
  store i64 %85, ptr %83, align 8, !tbaa !42
  %86 = load ptr, ptr %3, align 8, !tbaa !3
  %87 = getelementptr inbounds nuw %struct.ARKodeMemRec, ptr %86, i32 0, i32 116
  %88 = load i64, ptr %87, align 8, !tbaa !48
  %89 = sub nsw i64 %88, 5
  store i64 %89, ptr %87, align 8, !tbaa !48
  %90 = load ptr, ptr %4, align 8, !tbaa !8
  %91 = getelementptr inbounds nuw %struct._generic_ARKInterp, ptr %90, i32 0, i32 0
  %92 = load ptr, ptr %91, align 8, !tbaa !35
  call void @free(ptr noundef %92) #7
  %93 = load ptr, ptr %4, align 8, !tbaa !8
  %94 = getelementptr inbounds nuw %struct._generic_ARKInterp, ptr %93, i32 0, i32 0
  store ptr null, ptr %94, align 8, !tbaa !35
  br label %95

95:                                               ; preds = %81, %8
  %96 = load ptr, ptr %4, align 8, !tbaa !8
  %97 = getelementptr inbounds nuw %struct._generic_ARKInterp, ptr %96, i32 0, i32 1
  %98 = load ptr, ptr %97, align 8, !tbaa !15
  %99 = icmp ne ptr %98, null
  br i1 %99, label %100, label %106

100:                                              ; preds = %95
  %101 = load ptr, ptr %4, align 8, !tbaa !8
  %102 = getelementptr inbounds nuw %struct._generic_ARKInterp, ptr %101, i32 0, i32 1
  %103 = load ptr, ptr %102, align 8, !tbaa !15
  call void @free(ptr noundef %103) #7
  %104 = load ptr, ptr %4, align 8, !tbaa !8
  %105 = getelementptr inbounds nuw %struct._generic_ARKInterp, ptr %104, i32 0, i32 1
  store ptr null, ptr %105, align 8, !tbaa !15
  br label %106

106:                                              ; preds = %100, %95
  %107 = load ptr, ptr %4, align 8, !tbaa !8
  call void @free(ptr noundef %107) #7
  store ptr null, ptr %4, align 8, !tbaa !8
  br label %108

108:                                              ; preds = %106, %7
  ret void
}