; Function Attrs: nounwind uwtable
define void @arkInterpFree_Hermite(ptr noundef %0, ptr noundef captures(address_is_null) %1) #0 {
  %3 = icmp eq ptr %1, null
  br i1 %3, label %46, label %4

4:                                                ; preds = %2
  %5 = load ptr, ptr %1, align 8, !tbaa !17
  %.not = icmp eq ptr %5, null
  br i1 %.not, label %41, label %6

6:                                                ; preds = %4
  %7 = getelementptr inbounds nuw i8, ptr %5, i64 8
  %8 = load ptr, ptr %7, align 8, !tbaa !36
  %.not28 = icmp eq ptr %8, null
  br i1 %.not28, label %12, label %9

9:                                                ; preds = %6
  tail call void @arkFreeVec(ptr noundef %0, ptr noundef nonnull %7) #14
  %10 = load ptr, ptr %1, align 8, !tbaa !17
  %11 = getelementptr inbounds nuw i8, ptr %10, i64 8
  store ptr null, ptr %11, align 8, !tbaa !36
  br label %12

12:                                               ; preds = %9, %6
  %13 = phi ptr [ %10, %9 ], [ %5, %6 ]
  %14 = getelementptr inbounds nuw i8, ptr %13, i64 16
  %15 = load ptr, ptr %14, align 8, !tbaa !37
  %.not29 = icmp eq ptr %15, null
  br i1 %.not29, label %19, label %16

16:                                               ; preds = %12
  tail call void @arkFreeVec(ptr noundef %0, ptr noundef nonnull %14) #14
  %17 = load ptr, ptr %1, align 8, !tbaa !17
  %18 = getelementptr inbounds nuw i8, ptr %17, i64 16
  store ptr null, ptr %18, align 8, !tbaa !37
  br label %19

19:                                               ; preds = %16, %12
  %20 = phi ptr [ %17, %16 ], [ %13, %12 ]
  %21 = getelementptr inbounds nuw i8, ptr %20, i64 24
  %22 = load ptr, ptr %21, align 8, !tbaa !38
  %.not30 = icmp eq ptr %22, null
  br i1 %.not30, label %26, label %23

23:                                               ; preds = %19
  tail call void @arkFreeVec(ptr noundef %0, ptr noundef nonnull %21) #14
  %24 = load ptr, ptr %1, align 8, !tbaa !17
  %25 = getelementptr inbounds nuw i8, ptr %24, i64 24
  store ptr null, ptr %25, align 8, !tbaa !38
  br label %26

26:                                               ; preds = %23, %19
  %27 = phi ptr [ %24, %23 ], [ %20, %19 ]
  %28 = getelementptr inbounds nuw i8, ptr %27, i64 32
  %29 = load ptr, ptr %28, align 8, !tbaa !39
  %.not31 = icmp eq ptr %29, null
  br i1 %.not31, label %33, label %30

30:                                               ; preds = %26
  tail call void @arkFreeVec(ptr noundef %0, ptr noundef nonnull %28) #14
  %31 = load ptr, ptr %1, align 8, !tbaa !17
  %32 = getelementptr inbounds nuw i8, ptr %31, i64 32
  store ptr null, ptr %32, align 8, !tbaa !39
  br label %33

33:                                               ; preds = %30, %26
  %34 = phi ptr [ %31, %30 ], [ %27, %26 ]
  %35 = getelementptr inbounds nuw i8, ptr %0, i64 872
  %36 = load i64, ptr %35, align 8, !tbaa !23
  %37 = add nsw i64 %36, -2
  store i64 %37, ptr %35, align 8, !tbaa !23
  %38 = getelementptr inbounds nuw i8, ptr %0, i64 880
  %39 = load i64, ptr %38, align 8, !tbaa !31
  %40 = add nsw i64 %39, -5
  store i64 %40, ptr %38, align 8, !tbaa !31
  tail call void @free(ptr noundef nonnull %34) #14
  store ptr null, ptr %1, align 8, !tbaa !17
  br label %41

41:                                               ; preds = %33, %4
  %42 = getelementptr inbounds nuw i8, ptr %1, i64 8
  %43 = load ptr, ptr %42, align 8, !tbaa !3
  %.not32 = icmp eq ptr %43, null
  br i1 %.not32, label %45, label %44

44:                                               ; preds = %41
  tail call void @free(ptr noundef nonnull %43) #14
  br label %45

45:                                               ; preds = %44, %41
  tail call void @free(ptr noundef nonnull %1) #14
  br label %46

46:                                               ; preds = %2, %45
  ret void
}